target datalayout = "e-m:e-p270:32:32-p271:32:32-p272:64:64-i64:64-i128:128-f80:128-n8:16:32:64-S128"
target triple = "x86_64-pc-linux-gnu"

%struct.RelationData = type { %struct.RelFileLocator, ptr, i32, i32, i8, i8, i8, i8, i8, i32, i32, i32, i32, ptr, ptr, i32, %struct.LockInfoData, ptr, ptr, ptr, ptr, ptr, i8, ptr, ptr, ptr, ptr, ptr, ptr, i32, ptr, i8, ptr, ptr, i32, i8, i32, ptr, i8, ptr, ptr, ptr, ptr, ptr, ptr, ptr, i32, ptr, ptr, ptr, ptr, ptr, ptr, ptr, ptr, ptr, ptr, ptr, ptr, ptr, ptr, ptr, ptr, ptr, ptr, ptr, i32, i8, ptr }
%struct.RelFileLocator = type { i32, i32, i32 }
%struct.LockInfoData = type { %struct.LockRelId }
%struct.LockRelId = type { i32, i32 }
%struct.FormData_pg_class = type { i32, %struct.nameData, i32, i32, i32, i32, i32, i32, i32, i32, float, i32, i32, i8, i8, i8, i8, i16, i16, i8, i8, i8, i8, i8, i8, i8, i8, i32, i32, i32 }
%struct.nameData = type { [64 x i8] }
%struct.IndexInfo = type { i32, i32, i32, [32 x i16], ptr, ptr, ptr, ptr, ptr, ptr, ptr, ptr, ptr, ptr, i8, i8, i8, i8, i8, i8, i8, i8, i8, i32, i32, ptr, ptr }
%struct.FormData_pg_index = type { i32, i32, i16, i16, i8, i8, i8, i8, i8, i8, i8, i8, i8, i8, i8, %struct.int2vector }
%struct.int2vector = type { i32, i32, i32, i32, i32, i32, [0 x i16] }
%struct.IndexAmRoutine = type { i32, i16, i16, i16, i8, i8, i8, i8, i8, i8, i8, i8, i8, i8, i8, i8, i8, i8, i8, i8, i8, i32, ptr, ptr, ptr, ptr, ptr, ptr, ptr, ptr, ptr, ptr, ptr, ptr, ptr, ptr, ptr, ptr, ptr, ptr, ptr, ptr, ptr, ptr, ptr, ptr, ptr, ptr }

@.str.1 = private unnamed_addr constant [8 x i8] c"index.c\00", align 1
@.str.30 = private unnamed_addr constant [33 x i8] c"invalid indnatts %d for index %u\00", align 1
@__func__.BuildDummyIndexInfo = private unnamed_addr constant [20 x i8] c"BuildDummyIndexInfo\00", align 1

; Function Attrs: nounwind uwtable
define dso_local ptr @BuildDummyIndexInfo(ptr noundef %0) #0 {
  %2 = alloca ptr, align 8
  %3 = alloca ptr, align 8
  %4 = alloca ptr, align 8
  %5 = alloca i32, align 4
  %6 = alloca i32, align 4
  store ptr %0, ptr %2, align 8
  call void @llvm.lifetime.start.p0(i64 8, ptr %3) #8
  call void @llvm.lifetime.start.p0(i64 8, ptr %4) #8
  %7 = load ptr, ptr %2, align 8
  %8 = getelementptr inbounds nuw %struct.RelationData, ptr %7, i32 0, i32 48
  %9 = load ptr, ptr %8, align 8
  store ptr %9, ptr %4, align 8
  call void @llvm.lifetime.start.p0(i64 4, ptr %5) #8
  call void @llvm.lifetime.start.p0(i64 4, ptr %6) #8
  %10 = load ptr, ptr %4, align 8
  %11 = getelementptr inbounds nuw %struct.FormData_pg_index, ptr %10, i32 0, i32 2
  %12 = load i16, ptr %11, align 4
  %13 = sext i16 %12 to i32
  store i32 %13, ptr %6, align 4
  %14 = load i32, ptr %6, align 4
  %15 = icmp slt i32 %14, 1
  br i1 %15, label %19, label %16

16:                                               ; preds = %1
  %17 = load i32, ptr %6, align 4
  %18 = icmp sgt i32 %17, 32
  br i1 %18, label %19, label %34

19:                                               ; preds = %16, %1
  br label %20

20:                                               ; preds = %19
  br i1 true, label %21, label %23

21:                                               ; preds = %20
  %22 = call zeroext i1 @errstart_cold(i32 noundef 21, ptr noundef null) #9
  br i1 %22, label %25, label %31

23:                                               ; preds = %20
  %24 = call zeroext i1 @errstart(i32 noundef 21, ptr noundef null)
  br i1 %24, label %25, label %31

25:                                               ; preds = %23, %21
  %26 = load i32, ptr %6, align 4
  %27 = load ptr, ptr %2, align 8
  %28 = getelementptr inbounds nuw %struct.RelationData, ptr %27, i32 0, i32 15
  %29 = load i32, ptr %28, align 8
  %30 = call i32 (ptr, ...) @errmsg_internal(ptr noundef @.str.30, i32 noundef %26, i32 noundef %29)
  call void @errfinish(ptr noundef @.str.1, i32 noundef 2498, ptr noundef @__func__.BuildDummyIndexInfo)
  br label %31

31:                                               ; preds = %25, %23, %21
  unreachable

32:                                               ; No predecessors!
  br label %33

33:                                               ; preds = %32
  br label %34

34:                                               ; preds = %33, %16
  %35 = load ptr, ptr %4, align 8
  %36 = getelementptr inbounds nuw %struct.FormData_pg_index, ptr %35, i32 0, i32 2
  %37 = load i16, ptr %36, align 4
  %38 = sext i16 %37 to i32
  %39 = load ptr, ptr %4, align 8
  %40 = getelementptr inbounds nuw %struct.FormData_pg_index, ptr %39, i32 0, i32 3
  %41 = load i16, ptr %40, align 2
  %42 = sext i16 %41 to i32
  %43 = load ptr, ptr %2, align 8
  %44 = getelementptr inbounds nuw %struct.RelationData, ptr %43, i32 0, i32 13
  %45 = load ptr, ptr %44, align 8
  %46 = getelementptr inbounds nuw %struct.FormData_pg_class, ptr %45, i32 0, i32 6
  %47 = load i32, ptr %46, align 4
  %48 = load ptr, ptr %2, align 8
  %49 = call ptr @RelationGetDummyIndexExpressions(ptr noundef %48)
  %50 = load ptr, ptr %4, align 8
  %51 = getelementptr inbounds nuw %struct.FormData_pg_index, ptr %50, i32 0, i32 4
  %52 = load i8, ptr %51, align 4, !range !4, !noundef !5
  %53 = trunc i8 %52 to i1
  %54 = load ptr, ptr %4, align 8
  %55 = getelementptr inbounds nuw %struct.FormData_pg_index, ptr %54, i32 0, i32 5
  %56 = load i8, ptr %55, align 1, !range !4, !noundef !5
  %57 = trunc i8 %56 to i1
  %58 = load ptr, ptr %4, align 8
  %59 = getelementptr inbounds nuw %struct.FormData_pg_index, ptr %58, i32 0, i32 12
  %60 = load i8, ptr %59, align 4, !range !4, !noundef !5
  %61 = trunc i8 %60 to i1
  %62 = load ptr, ptr %2, align 8
  %63 = getelementptr inbounds nuw %struct.RelationData, ptr %62, i32 0, i32 51
  %64 = load ptr, ptr %63, align 8
  %65 = getelementptr inbounds nuw %struct.IndexAmRoutine, ptr %64, i32 0, i32 19
  %66 = load i8, ptr %65, align 1, !range !4, !noundef !5
  %67 = trunc i8 %66 to i1
  %68 = load ptr, ptr %4, align 8
  %69 = getelementptr inbounds nuw %struct.FormData_pg_index, ptr %68, i32 0, i32 7
  %70 = load i8, ptr %69, align 1, !range !4, !noundef !5
  %71 = trunc i8 %70 to i1
  br i1 %71, label %72, label %77

72:                                               ; preds = %34
  %73 = load ptr, ptr %4, align 8
  %74 = getelementptr inbounds nuw %struct.FormData_pg_index, ptr %73, i32 0, i32 4
  %75 = load i8, ptr %74, align 4, !range !4, !noundef !5
  %76 = trunc i8 %75 to i1
  br label %77

77:                                               ; preds = %72, %34
  %78 = phi i1 [ false, %34 ], [ %76, %72 ]
  %79 = call ptr @makeIndexInfo(i32 noundef %38, i32 noundef %42, i32 noundef %47, ptr noundef %49, ptr noundef null, i1 noundef zeroext %53, i1 noundef zeroext %57, i1 noundef zeroext %61, i1 noundef zeroext false, i1 noundef zeroext %67, i1 noundef zeroext %78)
  store ptr %79, ptr %3, align 8
  store i32 0, ptr %5, align 4
  br label %80

80:                                               ; preds = %97, %77
  %81 = load i32, ptr %5, align 4
  %82 = load i32, ptr %6, align 4
  %83 = icmp slt i32 %81, %82
  br i1 %83, label %84, label %100

84:                                               ; preds = %80
  %85 = load ptr, ptr %4, align 8
  %86 = getelementptr inbounds nuw %struct.FormData_pg_index, ptr %85, i32 0, i32 15
  %87 = getelementptr inbounds nuw %struct.int2vector, ptr %86, i32 0, i32 6
  %88 = load i32, ptr %5, align 4
  %89 = sext i32 %88 to i64
  %90 = getelementptr inbounds [0 x i16], ptr %87, i64 0, i64 %89
  %91 = load i16, ptr %90, align 2
  %92 = load ptr, ptr %3, align 8
  %93 = getelementptr inbounds nuw %struct.IndexInfo, ptr %92, i32 0, i32 3
  %94 = load i32, ptr %5, align 4
  %95 = sext i32 %94 to i64
  %96 = getelementptr inbounds [32 x i16], ptr %93, i64 0, i64 %95
  store i16 %91, ptr %96, align 2
  br label %97

97:                                               ; preds = %84
  %98 = load i32, ptr %5, align 4
  %99 = add i32 %98, 1
  store i32 %99, ptr %5, align 4
  br label %80, !llvm.loop !25

100:                                              ; preds = %80
  %101 = load ptr, ptr %3, align 8
  call void @llvm.lifetime.end.p0(i64 4, ptr %6) #8
  call void @llvm.lifetime.end.p0(i64 4, ptr %5) #8
  call void @llvm.lifetime.end.p0(i64 8, ptr %4) #8
  call void @llvm.lifetime.end.p0(i64 8, ptr %3) #8
  ret ptr %101
}