; Function Attrs: nounwind uwtable
define dso_local ptr @BuildDummyIndexInfo(ptr noundef %0) local_unnamed_addr #0 {
  %2 = getelementptr inbounds nuw i8, ptr %0, i64 328
  %3 = load ptr, ptr %2, align 8
  %4 = getelementptr inbounds nuw i8, ptr %3, i64 8
  %5 = load i16, ptr %4, align 4
  %6 = sext i16 %5 to i32
  %7 = add i16 %5, -33
  %or.cond = icmp ult i16 %7, -32
  br i1 %or.cond, label %8, label %.lr.ph

8:                                                ; preds = %1
  %9 = tail call zeroext i1 @errstart_cold(i32 noundef 21, ptr noundef null) #12
  tail call void @llvm.assume(i1 %9)
  %10 = getelementptr inbounds nuw i8, ptr %0, i64 72
  %11 = load i32, ptr %10, align 8
  %12 = tail call i32 (ptr, ...) @errmsg_internal(ptr noundef nonnull @.str.30, i32 noundef %6, i32 noundef %11) #11
  tail call void @errfinish(ptr noundef nonnull @.str.1, i32 noundef 2498, ptr noundef nonnull @__func__.BuildDummyIndexInfo) #11
  unreachable

.lr.ph:                                           ; preds = %1
  %13 = getelementptr inbounds nuw i8, ptr %3, i64 10
  %14 = load i16, ptr %13, align 2
  %15 = sext i16 %14 to i32
  %16 = getelementptr inbounds nuw i8, ptr %0, i64 56
  %17 = load ptr, ptr %16, align 8
  %18 = getelementptr inbounds nuw i8, ptr %17, i64 84
  %19 = load i32, ptr %18, align 4
  %20 = tail call ptr @RelationGetDummyIndexExpressions(ptr noundef nonnull %0) #11
  %21 = getelementptr inbounds nuw i8, ptr %3, i64 12
  %22 = load i8, ptr %21, align 4, !range !4, !noundef !5
  %23 = trunc nuw i8 %22 to i1
  %24 = getelementptr inbounds nuw i8, ptr %3, i64 13
  %25 = load i8, ptr %24, align 1, !range !4, !noundef !5
  %26 = trunc nuw i8 %25 to i1
  %27 = getelementptr inbounds nuw i8, ptr %3, i64 20
  %28 = load i8, ptr %27, align 4, !range !4, !noundef !5
  %29 = trunc nuw i8 %28 to i1
  %30 = getelementptr inbounds nuw i8, ptr %0, i64 352
  %31 = load ptr, ptr %30, align 8
  %32 = getelementptr inbounds nuw i8, ptr %31, i64 25
  %33 = load i8, ptr %32, align 1, !range !4, !noundef !5
  %34 = trunc nuw i8 %33 to i1
  %35 = getelementptr inbounds nuw i8, ptr %3, i64 15
  %36 = load i8, ptr %35, align 1, !range !4, !noundef !5
  %spec.select25 = and i8 %36, %22
  %spec.select = trunc nuw i8 %spec.select25 to i1
  %37 = tail call ptr @makeIndexInfo(i32 noundef %6, i32 noundef %15, i32 noundef %19, ptr noundef %20, ptr noundef null, i1 noundef zeroext %23, i1 noundef zeroext %26, i1 noundef zeroext %29, i1 noundef zeroext false, i1 noundef zeroext %34, i1 noundef zeroext %spec.select) #11
  %38 = getelementptr inbounds nuw i8, ptr %3, i64 48
  %39 = getelementptr inbounds nuw i8, ptr %37, i64 12
  %wide.trip.count = zext nneg i32 %6 to i64
  br label %40

40:                                               ; preds = %.lr.ph, %40
  %indvars.iv = phi i64 [ 0, %.lr.ph ], [ %indvars.iv.next, %40 ]
  %41 = getelementptr inbounds nuw [0 x i16], ptr %38, i64 0, i64 %indvars.iv
  %42 = load i16, ptr %41, align 2
  %43 = getelementptr inbounds nuw [32 x i16], ptr %39, i64 0, i64 %indvars.iv
  store i16 %42, ptr %43, align 2
  %indvars.iv.next = add nuw nsw i64 %indvars.iv, 1
  %exitcond.not = icmp eq i64 %indvars.iv.next, %wide.trip.count
  br i1 %exitcond.not, label %._crit_edge, label %40, !llvm.loop !27

._crit_edge:                                      ; preds = %40
  ret ptr %37
}